; Function Attrs: mustprogress nofree norecurse nosync nounwind willreturn memory(argmem: readwrite) uwtable
define dso_local void @_ZN18cmInstallGenerator12CheckCMP0082ERbS0_(ptr nocapture nonnull readnone align 8 %0, ptr nocapture noundef nonnull readonly align 1 dereferenceable(1) %1, ptr nocapture noundef nonnull writeonly align 1 dereferenceable(1) %2) unnamed_addr #7 align 2 {
  %4 = load i8, ptr %1, align 1
  %5 = and i8 %4, 1
  %.not = icmp eq i8 %5, 0
  br i1 %.not, label %7, label %6

6:                                                ; preds = %3
  store i8 1, ptr %2, align 1
  br label %7

7:                                                ; preds = %6, %3
  ret void
}